target datalayout = "e-m:e-p270:32:32-p271:32:32-p272:64:64-i64:64-i128:128-f80:128-n8:16:32:64-S128"
target triple = "x86_64-pc-linux-gnu"

%struct.FunctionCallInfoBaseData = type { ptr, ptr, ptr, i32, i8, i16, [0 x %struct.NullableDatum] }
%struct.NullableDatum = type { i64, i8 }
%struct.ScanKeyData = type { i32, i16, i16, i32, i32, %struct.FmgrInfo, i64 }
%struct.FmgrInfo = type { ptr, i32, i16, i8, i8, i8, ptr, ptr, ptr }
%struct.HeapTupleData = type { i32, %struct.ItemPointerData, i32, ptr }
%struct.ItemPointerData = type { %struct.BlockIdData, i16 }
%struct.BlockIdData = type { i16, i16 }
%struct.HeapTupleHeaderData = type { %union.anon, %struct.ItemPointerData, i16, i16, i8, [0 x i8] }
%union.anon = type { %struct.HeapTupleFields }
%struct.HeapTupleFields = type { i32, i32, %union.anon.1 }
%union.anon.1 = type { i32 }
%struct.RangeVar = type { i32, ptr, ptr, ptr, i8, i8, ptr, i32 }
%struct.FormData_pg_depend = type { i32, i32, i32, i32, i32, i32, i8 }

@.str.1 = private unnamed_addr constant [44 x i8] c"column \22%s\22 of relation \22%s\22 does not exist\00", align 1
@.str.2 = private unnamed_addr constant [12 x i8] c"ruleutils.c\00", align 1
@__func__.pg_get_serial_sequence = private unnamed_addr constant [23 x i8] c"pg_get_serial_sequence\00", align 1

; Function Attrs: inlinehint nounwind uwtable
define internal i64 @PointerGetDatum(ptr noundef %0) #2 {
  %2 = alloca ptr, align 8
  store ptr %0, ptr %2, align 8
  %3 = load ptr, ptr %2, align 8
  %4 = ptrtoint ptr %3 to i64
  ret i64 %4
}

; Function Attrs: nounwind uwtable
define internal ptr @string_to_text(ptr noundef %0) #0 {
  %2 = alloca ptr, align 8
  %3 = alloca ptr, align 8
  store ptr %0, ptr %2, align 8
  call void @llvm.lifetime.start.p0(i64 8, ptr %3) #10
  %4 = load ptr, ptr %2, align 8
  %5 = call ptr @cstring_to_text(ptr noundef %4)
  store ptr %5, ptr %3, align 8
  %6 = load ptr, ptr %2, align 8
  call void @pfree(ptr noundef %6)
  %7 = load ptr, ptr %3, align 8
  call void @llvm.lifetime.end.p0(i64 8, ptr %3) #10
  ret ptr %7
}

; Function Attrs: inlinehint nounwind uwtable
define internal ptr @GETSTRUCT(ptr noundef %0) #2 {
  %2 = alloca ptr, align 8
  store ptr %0, ptr %2, align 8
  %3 = load ptr, ptr %2, align 8
  %4 = getelementptr inbounds nuw %struct.HeapTupleData, ptr %3, i32 0, i32 3
  %5 = load ptr, ptr %4, align 8
  %6 = load ptr, ptr %2, align 8
  %7 = getelementptr inbounds nuw %struct.HeapTupleData, ptr %6, i32 0, i32 3
  %8 = load ptr, ptr %7, align 8
  %9 = getelementptr inbounds nuw %struct.HeapTupleHeaderData, ptr %8, i32 0, i32 4
  %10 = load i8, ptr %9, align 2
  %11 = zext i8 %10 to i32
  %12 = sext i32 %11 to i64
  %13 = getelementptr inbounds i8, ptr %5, i64 %12
  ret ptr %13
}

; Function Attrs: inlinehint nounwind uwtable
define internal i64 @Int32GetDatum(i32 noundef %0) #2 {
  %2 = alloca i32, align 4
  store i32 %0, ptr %2, align 4
  %3 = load i32, ptr %2, align 4
  %4 = sext i32 %3 to i64
  ret i64 %4
}

; Function Attrs: inlinehint nounwind uwtable
define internal i64 @ObjectIdGetDatum(i32 noundef %0) #2 {
  %2 = alloca i32, align 4
  store i32 %0, ptr %2, align 4
  %3 = load i32, ptr %2, align 4
  %4 = zext i32 %3 to i64
  ret i64 %4
}

; Function Attrs: inlinehint nounwind uwtable
define internal ptr @DatumGetPointer(i64 noundef %0) #2 {
  %2 = alloca i64, align 8
  store i64 %0, ptr %2, align 8
  %3 = load i64, ptr %2, align 8
  %4 = inttoptr i64 %3 to ptr
  ret ptr %4
}

; Function Attrs: nounwind uwtable
define dso_local i64 @pg_get_serial_sequence(ptr noundef %0) #0 {
  %2 = alloca i64, align 8
  %3 = alloca ptr, align 8
  %4 = alloca ptr, align 8
  %5 = alloca ptr, align 8
  %6 = alloca ptr, align 8
  %7 = alloca i32, align 4
  %8 = alloca ptr, align 8
  %9 = alloca i16, align 2
  %10 = alloca i32, align 4
  %11 = alloca ptr, align 8
  %12 = alloca [3 x %struct.ScanKeyData], align 16
  %13 = alloca ptr, align 8
  %14 = alloca ptr, align 8
  %15 = alloca ptr, align 8
  %16 = alloca i32, align 4
  %17 = alloca ptr, align 8
  store ptr %0, ptr %3, align 8
  call void @llvm.lifetime.start.p0(i64 8, ptr %4) #10
  %18 = load ptr, ptr %3, align 8
  %19 = getelementptr inbounds nuw %struct.FunctionCallInfoBaseData, ptr %18, i32 0, i32 6
  %20 = getelementptr inbounds [0 x %struct.NullableDatum], ptr %19, i64 0, i64 0
  %21 = getelementptr inbounds nuw %struct.NullableDatum, ptr %20, i32 0, i32 0
  %22 = load i64, ptr %21, align 8
  %23 = call ptr @DatumGetPointer(i64 noundef %22)
  %24 = call ptr @pg_detoast_datum_packed(ptr noundef %23)
  store ptr %24, ptr %4, align 8
  call void @llvm.lifetime.start.p0(i64 8, ptr %5) #10
  %25 = load ptr, ptr %3, align 8
  %26 = getelementptr inbounds nuw %struct.FunctionCallInfoBaseData, ptr %25, i32 0, i32 6
  %27 = getelementptr inbounds [0 x %struct.NullableDatum], ptr %26, i64 0, i64 1
  %28 = getelementptr inbounds nuw %struct.NullableDatum, ptr %27, i32 0, i32 0
  %29 = load i64, ptr %28, align 8
  %30 = call ptr @DatumGetPointer(i64 noundef %29)
  %31 = call ptr @pg_detoast_datum_packed(ptr noundef %30)
  store ptr %31, ptr %5, align 8
  call void @llvm.lifetime.start.p0(i64 8, ptr %6) #10
  call void @llvm.lifetime.start.p0(i64 4, ptr %7) #10
  call void @llvm.lifetime.start.p0(i64 8, ptr %8) #10
  call void @llvm.lifetime.start.p0(i64 2, ptr %9) #10
  call void @llvm.lifetime.start.p0(i64 4, ptr %10) #10
  store i32 0, ptr %10, align 4
  call void @llvm.lifetime.start.p0(i64 8, ptr %11) #10
  call void @llvm.lifetime.start.p0(i64 216, ptr %12) #10
  call void @llvm.lifetime.start.p0(i64 8, ptr %13) #10
  call void @llvm.lifetime.start.p0(i64 8, ptr %14) #10
  %32 = load ptr, ptr %4, align 8
  %33 = call ptr @textToQualifiedNameList(ptr noundef %32)
  %34 = call ptr @makeRangeVarFromNameList(ptr noundef %33)
  store ptr %34, ptr %6, align 8
  %35 = load ptr, ptr %6, align 8
  %36 = call i32 @RangeVarGetRelidExtended(ptr noundef %35, i32 noundef 0, i32 noundef 0, ptr noundef null, ptr noundef null)
  store i32 %36, ptr %7, align 4
  %37 = load ptr, ptr %5, align 8
  %38 = call ptr @text_to_cstring(ptr noundef %37)
  store ptr %38, ptr %8, align 8
  %39 = load i32, ptr %7, align 4
  %40 = load ptr, ptr %8, align 8
  %41 = call signext i16 @get_attnum(i32 noundef %39, ptr noundef %40)
  store i16 %41, ptr %9, align 2
  %42 = load i16, ptr %9, align 2
  %43 = sext i16 %42 to i32
  %44 = icmp eq i32 %43, 0
  br i1 %44, label %45, label %61

45:                                               ; preds = %1
  br label %46

46:                                               ; preds = %45
  br i1 true, label %47, label %49

47:                                               ; preds = %46
  %48 = call zeroext i1 @errstart_cold(i32 noundef 21, ptr noundef null) #11
  br i1 %48, label %51, label %58

49:                                               ; preds = %46
  %50 = call zeroext i1 @errstart(i32 noundef 21, ptr noundef null)
  br i1 %50, label %51, label %58

51:                                               ; preds = %49, %47
  %52 = call i32 @errcode(i32 noundef 50360452)
  %53 = load ptr, ptr %8, align 8
  %54 = load ptr, ptr %6, align 8
  %55 = getelementptr inbounds nuw %struct.RangeVar, ptr %54, i32 0, i32 3
  %56 = load ptr, ptr %55, align 8
  %57 = call i32 (ptr, ...) @errmsg(ptr noundef @.str.1, ptr noundef %53, ptr noundef %56)
  call void @errfinish(ptr noundef @.str.2, i32 noundef 2856, ptr noundef @__func__.pg_get_serial_sequence)
  br label %58

58:                                               ; preds = %51, %49, %47
  unreachable

59:                                               ; No predecessors!
  br label %60

60:                                               ; preds = %59
  br label %61

61:                                               ; preds = %60, %1
  %62 = call ptr @table_open(i32 noundef 2608, i32 noundef 1)
  store ptr %62, ptr %11, align 8
  %63 = getelementptr inbounds [3 x %struct.ScanKeyData], ptr %12, i64 0, i64 0
  %64 = call i64 @ObjectIdGetDatum(i32 noundef 1259)
  call void @ScanKeyInit(ptr noundef %63, i16 noundef signext 4, i16 noundef zeroext 3, i32 noundef 184, i64 noundef %64)
  %65 = getelementptr inbounds [3 x %struct.ScanKeyData], ptr %12, i64 0, i64 1
  %66 = load i32, ptr %7, align 4
  %67 = call i64 @ObjectIdGetDatum(i32 noundef %66)
  call void @ScanKeyInit(ptr noundef %65, i16 noundef signext 5, i16 noundef zeroext 3, i32 noundef 184, i64 noundef %67)
  %68 = getelementptr inbounds [3 x %struct.ScanKeyData], ptr %12, i64 0, i64 2
  %69 = load i16, ptr %9, align 2
  %70 = sext i16 %69 to i32
  %71 = call i64 @Int32GetDatum(i32 noundef %70)
  call void @ScanKeyInit(ptr noundef %68, i16 noundef signext 6, i16 noundef zeroext 3, i32 noundef 65, i64 noundef %71)
  %72 = load ptr, ptr %11, align 8
  %73 = getelementptr inbounds [3 x %struct.ScanKeyData], ptr %12, i64 0, i64 0
  %74 = call ptr @systable_beginscan(ptr noundef %72, i32 noundef 2674, i1 noundef zeroext true, ptr noundef null, i32 noundef 3, ptr noundef %73)
  store ptr %74, ptr %13, align 8
  br label %75

75:                                               ; preds = %117, %61
  %76 = load ptr, ptr %13, align 8
  %77 = call ptr @systable_getnext(ptr noundef %76)
  store ptr %77, ptr %14, align 8
  %78 = icmp ne ptr %77, null
  br i1 %78, label %79, label %118

79:                                               ; preds = %75
  call void @llvm.lifetime.start.p0(i64 8, ptr %15) #10
  %80 = load ptr, ptr %14, align 8
  %81 = call ptr @GETSTRUCT(ptr noundef %80)
  store ptr %81, ptr %15, align 8
  %82 = load ptr, ptr %15, align 8
  %83 = getelementptr inbounds nuw %struct.FormData_pg_depend, ptr %82, i32 0, i32 0
  %84 = load i32, ptr %83, align 4
  %85 = icmp eq i32 %84, 1259
  br i1 %85, label %86, label %114

86:                                               ; preds = %79
  %87 = load ptr, ptr %15, align 8
  %88 = getelementptr inbounds nuw %struct.FormData_pg_depend, ptr %87, i32 0, i32 2
  %89 = load i32, ptr %88, align 4
  %90 = icmp eq i32 %89, 0
  br i1 %90, label %91, label %114

91:                                               ; preds = %86
  %92 = load ptr, ptr %15, align 8
  %93 = getelementptr inbounds nuw %struct.FormData_pg_depend, ptr %92, i32 0, i32 6
  %94 = load i8, ptr %93, align 4
  %95 = sext i8 %94 to i32
  %96 = icmp eq i32 %95, 97
  br i1 %96, label %103, label %97

97:                                               ; preds = %91
  %98 = load ptr, ptr %15, align 8
  %99 = getelementptr inbounds nuw %struct.FormData_pg_depend, ptr %98, i32 0, i32 6
  %100 = load i8, ptr %99, align 4
  %101 = sext i8 %100 to i32
  %102 = icmp eq i32 %101, 105
  br i1 %102, label %103, label %114

103:                                              ; preds = %97, %91
  %104 = load ptr, ptr %15, align 8
  %105 = getelementptr inbounds nuw %struct.FormData_pg_depend, ptr %104, i32 0, i32 1
  %106 = load i32, ptr %105, align 4
  %107 = call signext i8 @get_rel_relkind(i32 noundef %106)
  %108 = sext i8 %107 to i32
  %109 = icmp eq i32 %108, 83
  br i1 %109, label %110, label %114

110:                                              ; preds = %103
  %111 = load ptr, ptr %15, align 8
  %112 = getelementptr inbounds nuw %struct.FormData_pg_depend, ptr %111, i32 0, i32 1
  %113 = load i32, ptr %112, align 4
  store i32 %113, ptr %10, align 4
  store i32 5, ptr %16, align 4
  br label %115

114:                                              ; preds = %103, %97, %86, %79
  store i32 0, ptr %16, align 4
  br label %115

115:                                              ; preds = %114, %110
  call void @llvm.lifetime.end.p0(i64 8, ptr %15) #10
  %116 = load i32, ptr %16, align 4
  switch i32 %116, label %139 [
    i32 0, label %117
    i32 5, label %118
  ]

117:                                              ; preds = %115
  br label %75, !llvm.loop !19

118:                                              ; preds = %115, %75
  %119 = load ptr, ptr %13, align 8
  call void @systable_endscan(ptr noundef %119)
  %120 = load ptr, ptr %11, align 8
  call void @table_close(ptr noundef %120, i32 noundef 1)
  %121 = load i32, ptr %10, align 4
  %122 = icmp ne i32 %121, 0
  br i1 %122, label %123, label %129

123:                                              ; preds = %118
  call void @llvm.lifetime.start.p0(i64 8, ptr %17) #10
  %124 = load i32, ptr %10, align 4
  %125 = call ptr @generate_qualified_relation_name(i32 noundef %124)
  store ptr %125, ptr %17, align 8
  %126 = load ptr, ptr %17, align 8
  %127 = call ptr @string_to_text(ptr noundef %126)
  %128 = call i64 @PointerGetDatum(ptr noundef %127)
  store i64 %128, ptr %2, align 8
  store i32 1, ptr %16, align 4
  call void @llvm.lifetime.end.p0(i64 8, ptr %17) #10
  br label %135

129:                                              ; preds = %118
  br label %130

130:                                              ; preds = %129
  %131 = load ptr, ptr %3, align 8
  %132 = getelementptr inbounds nuw %struct.FunctionCallInfoBaseData, ptr %131, i32 0, i32 4
  store i8 1, ptr %132, align 4
  store i64 0, ptr %2, align 8
  store i32 1, ptr %16, align 4
  br label %135

133:                                              ; No predecessors!
  br label %134

134:                                              ; preds = %133
  store i32 0, ptr %16, align 4
  br label %135

135:                                              ; preds = %134, %130, %123
  call void @llvm.lifetime.end.p0(i64 8, ptr %14) #10
  call void @llvm.lifetime.end.p0(i64 8, ptr %13) #10
  call void @llvm.lifetime.end.p0(i64 216, ptr %12) #10
  call void @llvm.lifetime.end.p0(i64 8, ptr %11) #10
  call void @llvm.lifetime.end.p0(i64 4, ptr %10) #10
  call void @llvm.lifetime.end.p0(i64 2, ptr %9) #10
  call void @llvm.lifetime.end.p0(i64 8, ptr %8) #10
  call void @llvm.lifetime.end.p0(i64 4, ptr %7) #10
  call void @llvm.lifetime.end.p0(i64 8, ptr %6) #10
  call void @llvm.lifetime.end.p0(i64 8, ptr %5) #10
  call void @llvm.lifetime.end.p0(i64 8, ptr %4) #10
  %136 = load i32, ptr %16, align 4
  switch i32 %136, label %139 [
    i32 0, label %137
    i32 1, label %137
  ]

137:                                              ; preds = %135, %135
  %138 = load i64, ptr %2, align 8
  ret i64 %138

139:                                              ; preds = %135, %115
  unreachable
}