; Function Attrs: nounwind uwtable
define dso_local i64 @pg_get_serial_sequence(ptr noundef captures(none) %0) local_unnamed_addr #0 {
  %2 = alloca [3 x %struct.ScanKeyData], align 16
  %3 = getelementptr inbounds nuw i8, ptr %0, i64 32
  %4 = load i64, ptr %3, align 8
  %5 = inttoptr i64 %4 to ptr
  %6 = tail call ptr @pg_detoast_datum_packed(ptr noundef %5) #11
  %7 = getelementptr inbounds nuw i8, ptr %0, i64 48
  %8 = load i64, ptr %7, align 8
  %9 = inttoptr i64 %8 to ptr
  %10 = tail call ptr @pg_detoast_datum_packed(ptr noundef %9) #11
  call void @llvm.lifetime.start.p0(i64 216, ptr nonnull %2) #11
  %11 = tail call ptr @textToQualifiedNameList(ptr noundef %6) #11
  %12 = tail call ptr @makeRangeVarFromNameList(ptr noundef %11) #11
  %13 = tail call i32 @RangeVarGetRelidExtended(ptr noundef %12, i32 noundef 0, i32 noundef 0, ptr noundef null, ptr noundef null) #11
  %14 = tail call ptr @text_to_cstring(ptr noundef %10) #11
  %15 = tail call signext i16 @get_attnum(i32 noundef %13, ptr noundef %14) #11
  %16 = icmp eq i16 %15, 0
  br i1 %16, label %17, label %23

17:                                               ; preds = %1
  %18 = tail call zeroext i1 @errstart_cold(i32 noundef 21, ptr noundef null) #12
  tail call void @llvm.assume(i1 %18)
  %19 = tail call i32 @errcode(i32 noundef 50360452) #11
  %20 = getelementptr inbounds nuw i8, ptr %12, i64 24
  %21 = load ptr, ptr %20, align 8
  %22 = tail call i32 (ptr, ...) @errmsg(ptr noundef nonnull @.str.1, ptr noundef %14, ptr noundef %21) #11
  tail call void @errfinish(ptr noundef nonnull @.str.2, i32 noundef 2856, ptr noundef nonnull @__func__.pg_get_serial_sequence) #11
  unreachable

23:                                               ; preds = %1
  %24 = tail call ptr @table_open(i32 noundef 2608, i32 noundef 1) #11
  call void @ScanKeyInit(ptr noundef nonnull %2, i16 noundef signext 4, i16 noundef zeroext 3, i32 noundef 184, i64 noundef 1259) #11
  %25 = getelementptr inbounds nuw i8, ptr %2, i64 72
  %26 = zext i32 %13 to i64
  call void @ScanKeyInit(ptr noundef nonnull %25, i16 noundef signext 5, i16 noundef zeroext 3, i32 noundef 184, i64 noundef %26) #11
  %27 = getelementptr inbounds nuw i8, ptr %2, i64 144
  %28 = sext i16 %15 to i64
  call void @ScanKeyInit(ptr noundef nonnull %27, i16 noundef signext 6, i16 noundef zeroext 3, i32 noundef 65, i64 noundef %28) #11
  %29 = call ptr @systable_beginscan(ptr noundef %24, i32 noundef 2674, i1 noundef zeroext true, ptr noundef null, i32 noundef 3, ptr noundef nonnull %2) #11
  %30 = call ptr @systable_getnext(ptr noundef %29) #11
  %.not38 = icmp eq ptr %30, null
  br i1 %.not38, label %.loopexit, label %.lr.ph

.lr.ph:                                           ; preds = %23, %53
  %31 = phi ptr [ %54, %53 ], [ %30, %23 ]
  %32 = getelementptr i8, ptr %31, i64 16
  %.val = load ptr, ptr %32, align 8
  %33 = getelementptr inbounds nuw i8, ptr %.val, i64 22
  %34 = load i8, ptr %33, align 2
  %35 = zext i8 %34 to i64
  %36 = getelementptr inbounds nuw i8, ptr %.val, i64 %35
  %37 = load i32, ptr %36, align 4
  %38 = icmp eq i32 %37, 1259
  br i1 %38, label %39, label %53

39:                                               ; preds = %.lr.ph
  %40 = getelementptr inbounds nuw i8, ptr %36, i64 8
  %41 = load i32, ptr %40, align 4
  %42 = icmp eq i32 %41, 0
  br i1 %42, label %43, label %53

43:                                               ; preds = %39
  %44 = getelementptr inbounds nuw i8, ptr %36, i64 24
  %45 = load i8, ptr %44, align 4
  switch i8 %45, label %53 [
    i8 97, label %46
    i8 105, label %46
  ]

46:                                               ; preds = %43, %43
  %47 = getelementptr inbounds nuw i8, ptr %36, i64 4
  %48 = load i32, ptr %47, align 4
  %49 = call signext i8 @get_rel_relkind(i32 noundef %48) #11
  %50 = icmp eq i8 %49, 83
  br i1 %50, label %.thread, label %53

.thread:                                          ; preds = %46
  %51 = getelementptr inbounds nuw i8, ptr %36, i64 4
  %52 = load i32, ptr %51, align 4
  br label %.loopexit

53:                                               ; preds = %.lr.ph, %39, %46, %43
  %54 = call ptr @systable_getnext(ptr noundef %29) #11
  %.not = icmp eq ptr %54, null
  br i1 %.not, label %.loopexit, label %.lr.ph

.loopexit:                                        ; preds = %53, %23, %.thread
  %.1 = phi i32 [ %52, %.thread ], [ 0, %23 ], [ 0, %53 ]
  call void @systable_endscan(ptr noundef %29) #11
  call void @table_close(ptr noundef %24, i32 noundef 1) #11
  %.not33 = icmp eq i32 %.1, 0
  br i1 %.not33, label %59, label %55

55:                                               ; preds = %.loopexit
  %56 = call fastcc ptr @generate_qualified_relation_name(i32 noundef %.1)
  %57 = call ptr @cstring_to_text(ptr noundef %56) #11
  call void @pfree(ptr noundef %56) #11
  %58 = ptrtoint ptr %57 to i64
  br label %61

59:                                               ; preds = %.loopexit
  %60 = getelementptr inbounds nuw i8, ptr %0, i64 28
  store i8 1, ptr %60, align 4
  br label %61

61:                                               ; preds = %59, %55
  %.0 = phi i64 [ %58, %55 ], [ 0, %59 ]
  call void @llvm.lifetime.end.p0(i64 216, ptr nonnull %2) #11
  ret i64 %.0
}